; Function Attrs: mustprogress uwtable
define hidden noundef zeroext i1 @_ZN10duckdb_re26Regexp10ParseState16PushWordBoundaryEb(ptr noundef nonnull align 8 captures(none) dereferenceable(48) %0, i1 noundef zeroext %1) local_unnamed_addr #9 align 2 personality ptr @__gxx_personality_v0 {
  %3 = tail call noalias noundef nonnull dereferenceable(40) ptr @_Znwm(i64 noundef 40) #33
  %4 = load i32, ptr %0, align 8, !tbaa !7
  br i1 %1, label %5, label %8

5:                                                ; preds = %2
  invoke void @_ZN10duckdb_re26RegexpC1ENS_8RegexpOpENS0_10ParseFlagsE(ptr noundef nonnull align 8 dereferenceable(40) %3, i32 noundef 16, i32 noundef %4)
          to label %_ZN10duckdb_re26Regexp10ParseState12PushSimpleOpENS_8RegexpOpE.exit unwind label %6

common.resume:                                    ; preds = %9, %6
  %common.resume.op = phi { ptr, i32 } [ %7, %6 ], [ %10, %9 ]
  tail call void @_ZdlPv(ptr noundef nonnull %3) #30
  resume { ptr, i32 } %common.resume.op

6:                                                ; preds = %5
  %7 = landingpad { ptr, i32 }
          cleanup
  br label %common.resume

8:                                                ; preds = %2
  invoke void @_ZN10duckdb_re26RegexpC1ENS_8RegexpOpENS0_10ParseFlagsE(ptr noundef nonnull align 8 dereferenceable(40) %3, i32 noundef 17, i32 noundef %4)
          to label %_ZN10duckdb_re26Regexp10ParseState12PushSimpleOpENS_8RegexpOpE.exit unwind label %9

9:                                                ; preds = %8
  %10 = landingpad { ptr, i32 }
          cleanup
  br label %common.resume

_ZN10duckdb_re26Regexp10ParseState12PushSimpleOpENS_8RegexpOpE.exit: ; preds = %8, %5
  %11 = tail call noundef zeroext i1 @_ZN10duckdb_re26Regexp10ParseState10PushRegexpEPS0_(ptr noundef nonnull align 8 dereferenceable(48) %0, ptr noundef nonnull %3)
  ret i1 true
}